target datalayout = "e-m:e-p270:32:32-p271:32:32-p272:64:64-i64:64-i128:128-f80:128-n8:16:32:64-S128"
target triple = "x86_64-pc-linux-gnu"

%struct._typeobject = type { %struct.PyVarObject, ptr, i64, i64, ptr, i64, ptr, ptr, ptr, ptr, ptr, ptr, ptr, ptr, ptr, ptr, ptr, ptr, ptr, i64, ptr, ptr, ptr, ptr, i64, ptr, ptr, ptr, ptr, ptr, ptr, ptr, ptr, ptr, i64, ptr, ptr, ptr, ptr, ptr, ptr, ptr, ptr, ptr, ptr, ptr, i32, ptr, ptr, i8, i16 }
%struct.PyVarObject = type { %struct._object, i64 }
%struct._object = type { %union.anon, ptr }
%union.anon = type { i64 }
%struct.anon = type { i32, i32 }
%struct.ProfilerObject = type { %struct._object, ptr, ptr, ptr, i32, ptr, double, i32, ptr }
%struct._ProfilerContext = type { i64, i64, ptr, ptr }

@.str.41 = private unnamed_addr constant [52 x i8] c"Exception ignored while destroying _lsprof profiler\00", align 1

; Function Attrs: alwaysinline nounwind uwtable
define internal i32 @_Py_IsImmortal(ptr noundef %0) #2 {
  %2 = alloca ptr, align 8
  store ptr %0, ptr %2, align 8, !tbaa !3
  %3 = load ptr, ptr %2, align 8, !tbaa !3
  %4 = getelementptr inbounds nuw %struct._object, ptr %3, i32 0, i32 0
  %5 = getelementptr inbounds nuw %struct.anon, ptr %4, i32 0, i32 0
  %6 = load i32, ptr %5, align 8, !tbaa !21
  %7 = icmp slt i32 %6, 0
  %8 = zext i1 %7 to i32
  ret i32 %8
}

; Function Attrs: alwaysinline nounwind uwtable
define internal void @Py_DECREF(ptr noundef %0) #2 {
  %2 = alloca ptr, align 8
  store ptr %0, ptr %2, align 8, !tbaa !3
  %3 = load ptr, ptr %2, align 8, !tbaa !3
  %4 = call i32 @_Py_IsImmortal(ptr noundef %3)
  %5 = icmp ne i32 %4, 0
  br i1 %5, label %6, label %7

6:                                                ; preds = %1
  br label %16

7:                                                ; preds = %1
  %8 = load ptr, ptr %2, align 8, !tbaa !3
  %9 = getelementptr inbounds nuw %struct._object, ptr %8, i32 0, i32 0
  %10 = getelementptr inbounds nuw %struct.anon, ptr %9, i32 0, i32 0
  %11 = load i32, ptr %10, align 8, !tbaa !21
  %12 = add i32 %11, -1
  store i32 %12, ptr %10, align 8, !tbaa !21
  %13 = icmp eq i32 %12, 0
  br i1 %13, label %14, label %16

14:                                               ; preds = %7
  %15 = load ptr, ptr %2, align 8, !tbaa !3
  call void @_Py_Dealloc(ptr noundef %15)
  br label %16

16:                                               ; preds = %6, %14, %7
  ret void
}

; Function Attrs: inlinehint nounwind uwtable
define internal ptr @_Py_TYPE(ptr noundef %0) #1 {
  %2 = alloca ptr, align 8
  store ptr %0, ptr %2, align 8, !tbaa !3
  %3 = load ptr, ptr %2, align 8, !tbaa !3
  %4 = getelementptr inbounds nuw %struct._object, ptr %3, i32 0, i32 1
  %5 = load ptr, ptr %4, align 8, !tbaa !23
  ret ptr %5
}

; Function Attrs: inlinehint nounwind uwtable
define internal void @Py_XDECREF(ptr noundef %0) #1 {
  %2 = alloca ptr, align 8
  store ptr %0, ptr %2, align 8, !tbaa !3
  %3 = load ptr, ptr %2, align 8, !tbaa !3
  %4 = icmp ne ptr %3, null
  br i1 %4, label %5, label %7

5:                                                ; preds = %1
  %6 = load ptr, ptr %2, align 8, !tbaa !3
  call void @Py_DECREF(ptr noundef %6)
  br label %7

7:                                                ; preds = %5, %1
  ret void
}

; Function Attrs: nounwind uwtable
define internal void @clearEntries(ptr noundef %0) #0 {
  %2 = alloca ptr, align 8
  %3 = alloca ptr, align 8
  store ptr %0, ptr %2, align 8, !tbaa !24
  %4 = load ptr, ptr %2, align 8, !tbaa !24
  %5 = getelementptr inbounds nuw %struct.ProfilerObject, ptr %4, i32 0, i32 1
  %6 = load ptr, ptr %5, align 8, !tbaa !49
  %7 = call i32 @RotatingTree_Enum(ptr noundef %6, ptr noundef @freeEntry, ptr noundef null)
  %8 = load ptr, ptr %2, align 8, !tbaa !24
  %9 = getelementptr inbounds nuw %struct.ProfilerObject, ptr %8, i32 0, i32 1
  store ptr null, ptr %9, align 8, !tbaa !49
  %10 = load ptr, ptr %2, align 8, !tbaa !24
  %11 = getelementptr inbounds nuw %struct.ProfilerObject, ptr %10, i32 0, i32 2
  %12 = load ptr, ptr %11, align 8, !tbaa !92
  %13 = icmp ne ptr %12, null
  br i1 %13, label %14, label %20

14:                                               ; preds = %1
  %15 = load ptr, ptr %2, align 8, !tbaa !24
  %16 = getelementptr inbounds nuw %struct.ProfilerObject, ptr %15, i32 0, i32 2
  %17 = load ptr, ptr %16, align 8, !tbaa !92
  call void @PyMem_Free(ptr noundef %17)
  %18 = load ptr, ptr %2, align 8, !tbaa !24
  %19 = getelementptr inbounds nuw %struct.ProfilerObject, ptr %18, i32 0, i32 2
  store ptr null, ptr %19, align 8, !tbaa !92
  br label %20

20:                                               ; preds = %14, %1
  br label %21

21:                                               ; preds = %26, %20
  %22 = load ptr, ptr %2, align 8, !tbaa !24
  %23 = getelementptr inbounds nuw %struct.ProfilerObject, ptr %22, i32 0, i32 3
  %24 = load ptr, ptr %23, align 8, !tbaa !104
  %25 = icmp ne ptr %24, null
  br i1 %25, label %26, label %36

26:                                               ; preds = %21
  call void @llvm.lifetime.start.p0(i64 8, ptr %3) #6
  %27 = load ptr, ptr %2, align 8, !tbaa !24
  %28 = getelementptr inbounds nuw %struct.ProfilerObject, ptr %27, i32 0, i32 3
  %29 = load ptr, ptr %28, align 8, !tbaa !104
  store ptr %29, ptr %3, align 8, !tbaa !93
  %30 = load ptr, ptr %3, align 8, !tbaa !93
  %31 = getelementptr inbounds nuw %struct._ProfilerContext, ptr %30, i32 0, i32 2
  %32 = load ptr, ptr %31, align 8, !tbaa !96
  %33 = load ptr, ptr %2, align 8, !tbaa !24
  %34 = getelementptr inbounds nuw %struct.ProfilerObject, ptr %33, i32 0, i32 3
  store ptr %32, ptr %34, align 8, !tbaa !104
  %35 = load ptr, ptr %3, align 8, !tbaa !93
  call void @PyMem_Free(ptr noundef %35)
  call void @llvm.lifetime.end.p0(i64 8, ptr %3) #6
  br label %21, !llvm.loop !105

36:                                               ; preds = %21
  %37 = load ptr, ptr %2, align 8, !tbaa !24
  %38 = getelementptr inbounds nuw %struct.ProfilerObject, ptr %37, i32 0, i32 3
  store ptr null, ptr %38, align 8, !tbaa !104
  ret void
}

; Function Attrs: nounwind uwtable
define internal void @flush_unmatched(ptr noundef %0) #0 {
  %2 = alloca ptr, align 8
  %3 = alloca ptr, align 8
  %4 = alloca ptr, align 8
  store ptr %0, ptr %2, align 8, !tbaa !24
  br label %5

5:                                                ; preds = %34, %1
  %6 = load ptr, ptr %2, align 8, !tbaa !24
  %7 = getelementptr inbounds nuw %struct.ProfilerObject, ptr %6, i32 0, i32 2
  %8 = load ptr, ptr %7, align 8, !tbaa !92
  %9 = icmp ne ptr %8, null
  br i1 %9, label %10, label %35

10:                                               ; preds = %5
  call void @llvm.lifetime.start.p0(i64 8, ptr %3) #6
  %11 = load ptr, ptr %2, align 8, !tbaa !24
  %12 = getelementptr inbounds nuw %struct.ProfilerObject, ptr %11, i32 0, i32 2
  %13 = load ptr, ptr %12, align 8, !tbaa !92
  store ptr %13, ptr %3, align 8, !tbaa !93
  call void @llvm.lifetime.start.p0(i64 8, ptr %4) #6
  %14 = load ptr, ptr %3, align 8, !tbaa !93
  %15 = getelementptr inbounds nuw %struct._ProfilerContext, ptr %14, i32 0, i32 3
  %16 = load ptr, ptr %15, align 8, !tbaa !94
  store ptr %16, ptr %4, align 8, !tbaa !66
  %17 = load ptr, ptr %4, align 8, !tbaa !66
  %18 = icmp ne ptr %17, null
  br i1 %18, label %19, label %23

19:                                               ; preds = %10
  %20 = load ptr, ptr %2, align 8, !tbaa !24
  %21 = load ptr, ptr %3, align 8, !tbaa !93
  %22 = load ptr, ptr %4, align 8, !tbaa !66
  call void @Stop(ptr noundef %20, ptr noundef %21, ptr noundef %22)
  br label %29

23:                                               ; preds = %10
  %24 = load ptr, ptr %3, align 8, !tbaa !93
  %25 = getelementptr inbounds nuw %struct._ProfilerContext, ptr %24, i32 0, i32 2
  %26 = load ptr, ptr %25, align 8, !tbaa !96
  %27 = load ptr, ptr %2, align 8, !tbaa !24
  %28 = getelementptr inbounds nuw %struct.ProfilerObject, ptr %27, i32 0, i32 2
  store ptr %26, ptr %28, align 8, !tbaa !92
  br label %29

29:                                               ; preds = %23, %19
  %30 = load ptr, ptr %3, align 8, !tbaa !93
  %31 = icmp ne ptr %30, null
  br i1 %31, label %32, label %34

32:                                               ; preds = %29
  %33 = load ptr, ptr %3, align 8, !tbaa !93
  call void @PyMem_Free(ptr noundef %33)
  br label %34

34:                                               ; preds = %32, %29
  call void @llvm.lifetime.end.p0(i64 8, ptr %4) #6
  call void @llvm.lifetime.end.p0(i64 8, ptr %3) #6
  br label %5, !llvm.loop !97

35:                                               ; preds = %5
  ret void
}

; Function Attrs: inlinehint nounwind uwtable
define internal ptr @_PyThreadState_GET() #1 {
  %1 = call ptr @_PyThreadState_GetCurrent()
  ret ptr %1
}

; Function Attrs: nounwind uwtable
define internal void @profiler_dealloc(ptr noundef %0) #0 {
  %2 = alloca ptr, align 8
  %3 = alloca ptr, align 8
  %4 = alloca ptr, align 8
  store ptr %0, ptr %2, align 8, !tbaa !24
  %5 = load ptr, ptr %2, align 8, !tbaa !24
  call void @PyObject_GC_UnTrack(ptr noundef %5)
  %6 = load ptr, ptr %2, align 8, !tbaa !24
  %7 = getelementptr inbounds nuw %struct.ProfilerObject, ptr %6, i32 0, i32 4
  %8 = load i32, ptr %7, align 8, !tbaa !31
  %9 = and i32 %8, 1
  %10 = icmp ne i32 %9, 0
  br i1 %10, label %11, label %18

11:                                               ; preds = %1
  call void @llvm.lifetime.start.p0(i64 8, ptr %3) #6
  %12 = call ptr @_PyThreadState_GET()
  store ptr %12, ptr %3, align 8, !tbaa !36
  %13 = load ptr, ptr %3, align 8, !tbaa !36
  %14 = call i32 @_PyEval_SetProfile(ptr noundef %13, ptr noundef null, ptr noundef null)
  %15 = icmp slt i32 %14, 0
  br i1 %15, label %16, label %17

16:                                               ; preds = %11
  call void (ptr, ...) @PyErr_FormatUnraisable(ptr noundef @.str.41)
  br label %17

17:                                               ; preds = %16, %11
  call void @llvm.lifetime.end.p0(i64 8, ptr %3) #6
  br label %18

18:                                               ; preds = %17, %1
  %19 = load ptr, ptr %2, align 8, !tbaa !24
  call void @flush_unmatched(ptr noundef %19)
  %20 = load ptr, ptr %2, align 8, !tbaa !24
  call void @clearEntries(ptr noundef %20)
  %21 = load ptr, ptr %2, align 8, !tbaa !24
  %22 = getelementptr inbounds nuw %struct.ProfilerObject, ptr %21, i32 0, i32 5
  %23 = load ptr, ptr %22, align 8, !tbaa !38
  call void @Py_XDECREF(ptr noundef %23)
  call void @llvm.lifetime.start.p0(i64 8, ptr %4) #6
  %24 = load ptr, ptr %2, align 8, !tbaa !24
  %25 = call ptr @_Py_TYPE(ptr noundef %24)
  store ptr %25, ptr %4, align 8, !tbaa !20
  %26 = load ptr, ptr %4, align 8, !tbaa !20
  %27 = getelementptr inbounds nuw %struct._typeobject, ptr %26, i32 0, i32 38
  %28 = load ptr, ptr %27, align 8, !tbaa !39
  %29 = load ptr, ptr %2, align 8, !tbaa !24
  call void %28(ptr noundef %29)
  %30 = load ptr, ptr %4, align 8, !tbaa !20
  call void @Py_DECREF(ptr noundef %30)
  call void @llvm.lifetime.end.p0(i64 8, ptr %4) #6
  ret void
}