; Function Attrs: nounwind uwtable
define internal void @profiler_dealloc(ptr noundef %0) #0 {
  tail call void @PyObject_GC_UnTrack(ptr noundef %0) #5
  %2 = getelementptr inbounds nuw i8, ptr %0, i64 40
  %3 = load i32, ptr %2, align 8, !tbaa !26
  %4 = and i32 %3, 1
  %.not = icmp eq i32 %4, 0
  br i1 %.not, label %10, label %5

5:                                                ; preds = %1
  %6 = tail call ptr @_PyThreadState_GetCurrent() #5
  %7 = tail call i32 @_PyEval_SetProfile(ptr noundef %6, ptr noundef null, ptr noundef null) #5
  %8 = icmp slt i32 %7, 0
  br i1 %8, label %9, label %10

9:                                                ; preds = %5
  tail call void (ptr, ...) @PyErr_FormatUnraisable(ptr noundef nonnull @.str.41) #5
  br label %10

10:                                               ; preds = %5, %9, %1
  %11 = getelementptr inbounds nuw i8, ptr %0, i64 24
  %12 = load ptr, ptr %11, align 8, !tbaa !31
  %.not13.i = icmp eq ptr %12, null
  br i1 %.not13.i, label %flush_unmatched.exit, label %.lr.ph.i

.lr.ph.i:                                         ; preds = %10, %20
  %13 = phi ptr [ %21, %20 ], [ %12, %10 ]
  %14 = getelementptr inbounds nuw i8, ptr %13, i64 24
  %15 = load ptr, ptr %14, align 8, !tbaa !32
  %.not12.i = icmp eq ptr %15, null
  br i1 %.not12.i, label %17, label %16

16:                                               ; preds = %.lr.ph.i
  tail call fastcc void @Stop(ptr noundef nonnull %0, ptr noundef %13, ptr noundef %15)
  br label %20

17:                                               ; preds = %.lr.ph.i
  %18 = getelementptr inbounds nuw i8, ptr %13, i64 16
  %19 = load ptr, ptr %18, align 8, !tbaa !35
  store ptr %19, ptr %11, align 8, !tbaa !31
  br label %20

20:                                               ; preds = %17, %16
  tail call void @PyMem_Free(ptr noundef nonnull %13) #5
  %21 = load ptr, ptr %11, align 8, !tbaa !31
  %.not.i10 = icmp eq ptr %21, null
  br i1 %.not.i10, label %flush_unmatched.exit, label %.lr.ph.i, !llvm.loop !36

flush_unmatched.exit:                             ; preds = %20, %10
  %22 = getelementptr inbounds nuw i8, ptr %0, i64 16
  %23 = load ptr, ptr %22, align 8, !tbaa !38
  %24 = tail call i32 @RotatingTree_Enum(ptr noundef %23, ptr noundef nonnull @freeEntry, ptr noundef null) #5
  store ptr null, ptr %22, align 8, !tbaa !38
  %25 = load ptr, ptr %11, align 8, !tbaa !31
  %.not.i11 = icmp eq ptr %25, null
  br i1 %.not.i11, label %27, label %26

26:                                               ; preds = %flush_unmatched.exit
  tail call void @PyMem_Free(ptr noundef nonnull %25) #5
  store ptr null, ptr %11, align 8, !tbaa !31
  br label %27

27:                                               ; preds = %26, %flush_unmatched.exit
  %28 = getelementptr inbounds nuw i8, ptr %0, i64 32
  %29 = load ptr, ptr %28, align 8, !tbaa !39
  %.not1213.i = icmp eq ptr %29, null
  br i1 %.not1213.i, label %clearEntries.exit, label %.lr.ph.i12

.lr.ph.i12:                                       ; preds = %27, %.lr.ph.i12
  %30 = phi ptr [ %33, %.lr.ph.i12 ], [ %29, %27 ]
  %31 = getelementptr inbounds nuw i8, ptr %30, i64 16
  %32 = load ptr, ptr %31, align 8, !tbaa !35
  store ptr %32, ptr %28, align 8, !tbaa !39
  tail call void @PyMem_Free(ptr noundef nonnull %30) #5
  %33 = load ptr, ptr %28, align 8, !tbaa !39
  %.not12.i13 = icmp eq ptr %33, null
  br i1 %.not12.i13, label %clearEntries.exit, label %.lr.ph.i12, !llvm.loop !40

clearEntries.exit:                                ; preds = %.lr.ph.i12, %27
  store ptr null, ptr %28, align 8, !tbaa !39
  %34 = getelementptr inbounds nuw i8, ptr %0, i64 48
  %35 = load ptr, ptr %34, align 8, !tbaa !41
  %.not.i14 = icmp eq ptr %35, null
  br i1 %.not.i14, label %Py_XDECREF.exit, label %36

36:                                               ; preds = %clearEntries.exit
  %37 = load i32, ptr %35, align 8, !tbaa !9
  %.not.i.i = icmp sgt i32 %37, -1
  br i1 %.not.i.i, label %38, label %Py_XDECREF.exit

38:                                               ; preds = %36
  %39 = add nsw i32 %37, -1
  store i32 %39, ptr %35, align 8, !tbaa !9
  %40 = icmp eq i32 %39, 0
  br i1 %40, label %41, label %Py_XDECREF.exit

41:                                               ; preds = %38
  tail call void @_Py_Dealloc(ptr noundef nonnull %35) #5
  br label %Py_XDECREF.exit

Py_XDECREF.exit:                                  ; preds = %clearEntries.exit, %36, %38, %41
  %42 = getelementptr i8, ptr %0, i64 8
  %.val = load ptr, ptr %42, align 8, !tbaa !3
  %43 = getelementptr inbounds nuw i8, ptr %.val, i64 320
  %44 = load ptr, ptr %43, align 8, !tbaa !42
  tail call void %44(ptr noundef nonnull %0) #5
  %45 = load i32, ptr %.val, align 8, !tbaa !9
  %.not.i = icmp sgt i32 %45, -1
  br i1 %.not.i, label %46, label %Py_DECREF.exit

46:                                               ; preds = %Py_XDECREF.exit
  %47 = add nsw i32 %45, -1
  store i32 %47, ptr %.val, align 8, !tbaa !9
  %48 = icmp eq i32 %47, 0
  br i1 %48, label %49, label %Py_DECREF.exit

49:                                               ; preds = %46
  tail call void @_Py_Dealloc(ptr noundef nonnull %.val) #5
  br label %Py_DECREF.exit

Py_DECREF.exit:                                   ; preds = %Py_XDECREF.exit, %46, %49
  ret void
}